target datalayout = "e-m:e-p270:32:32-p271:32:32-p272:64:64-i64:64-i128:128-f80:128-n8:16:32:64-S128"
target triple = "x86_64-pc-linux-gnu"

; Function Attrs: mustprogress uwtable
define void @_ZN14htif_pthread_t4recvEPvm(ptr noundef nonnull align 8 dereferenceable(896) %0, ptr noundef %1, i64 noundef %2) #0 align 2 {
  %4 = alloca ptr, align 8
  %5 = alloca ptr, align 8
  %6 = alloca i64, align 8
  store ptr %0, ptr %4, align 8
  store ptr %1, ptr %5, align 8
  store i64 %2, ptr %6, align 8
  %7 = load ptr, ptr %4, align 8
  br label %8

8:                                                ; preds = %13, %3
  %9 = load ptr, ptr %5, align 8
  %10 = load i64, ptr %6, align 8
  %11 = call noundef zeroext i1 @_ZN14htif_pthread_t16recv_nonblockingEPvm(ptr noundef nonnull align 8 dereferenceable(896) %7, ptr noundef %9, i64 noundef %10)
  %12 = xor i1 %11, true
  br i1 %12, label %13, label %14

13:                                               ; preds = %8
  br label %8, !llvm.loop !7

14:                                               ; preds = %8
  ret void
}