; Function Attrs: mustprogress uwtable
define void @_ZN14htif_pthread_t4recvEPvm(ptr noundef nonnull align 8 dereferenceable(896) %0, ptr nocapture noundef writeonly %1, i64 noundef %2) local_unnamed_addr #2 align 2 {
  br label %4

4:                                                ; preds = %4, %3
  %5 = tail call noundef zeroext i1 @_ZN14htif_pthread_t16recv_nonblockingEPvm(ptr noundef nonnull align 8 dereferenceable(896) %0, ptr noundef %1, i64 noundef %2)
  br i1 %5, label %6, label %4, !llvm.loop !49

6:                                                ; preds = %4
  ret void
}